target datalayout = "e-m:e-p270:32:32-p271:32:32-p272:64:64-i64:64-i128:128-f80:128-n8:16:32:64-S128"
target triple = "x86_64-pc-linux-gnu"

%struct.Vec_Int_t_ = type { i32, i32, ptr }

; Function Attrs: inlinehint nounwind uwtable
define internal i32 @Abc_Var2Lit(i32 noundef %0, i32 noundef %1) #2 {
  %3 = alloca i32, align 4
  %4 = alloca i32, align 4
  store i32 %0, ptr %3, align 4, !tbaa !10
  store i32 %1, ptr %4, align 4, !tbaa !10
  %5 = load i32, ptr %3, align 4, !tbaa !10
  %6 = load i32, ptr %3, align 4, !tbaa !10
  %7 = add nsw i32 %5, %6
  %8 = load i32, ptr %4, align 4, !tbaa !10
  %9 = add nsw i32 %7, %8
  ret i32 %9
}

; Function Attrs: inlinehint nounwind uwtable
define internal i32 @Abc_LitNot(i32 noundef %0) #2 {
  %2 = alloca i32, align 4
  store i32 %0, ptr %2, align 4, !tbaa !10
  %3 = load i32, ptr %2, align 4, !tbaa !10
  %4 = xor i32 %3, 1
  ret i32 %4
}

; Function Attrs: inlinehint nounwind uwtable
define internal i32 @Abc_Lit2Var(i32 noundef %0) #2 {
  %2 = alloca i32, align 4
  store i32 %0, ptr %2, align 4, !tbaa !10
  %3 = load i32, ptr %2, align 4, !tbaa !10
  %4 = ashr i32 %3, 1
  ret i32 %4
}

; Function Attrs: inlinehint nounwind uwtable
define internal i32 @Abc_LitIsCompl(i32 noundef %0) #2 {
  %2 = alloca i32, align 4
  store i32 %0, ptr %2, align 4, !tbaa !10
  %3 = load i32, ptr %2, align 4, !tbaa !10
  %4 = and i32 %3, 1
  ret i32 %4
}

; Function Attrs: inlinehint nounwind uwtable
define internal ptr @Vec_IntArray(ptr noundef %0) #2 {
  %2 = alloca ptr, align 8
  store ptr %0, ptr %2, align 8, !tbaa !32
  %3 = load ptr, ptr %2, align 8, !tbaa !32
  %4 = getelementptr inbounds nuw %struct.Vec_Int_t_, ptr %3, i32 0, i32 2
  %5 = load ptr, ptr %4, align 8, !tbaa !46
  ret ptr %5
}

; Function Attrs: nounwind uwtable
define internal i32 @Fx_ManDivNormalize(ptr noundef %0) #0 {
  %2 = alloca i32, align 4
  %3 = alloca ptr, align 8
  %4 = alloca ptr, align 8
  %5 = alloca i32, align 4
  %6 = alloca i32, align 4
  %7 = alloca i32, align 4
  %8 = alloca i32, align 4
  %9 = alloca i32, align 4
  %10 = alloca i32, align 4
  %11 = alloca i32, align 4
  %12 = alloca i32, align 4
  store ptr %0, ptr %3, align 8, !tbaa !32
  call void @llvm.lifetime.start.p0(i64 8, ptr %4) #13
  %13 = load ptr, ptr %3, align 8, !tbaa !32
  %14 = call ptr @Vec_IntArray(ptr noundef %13)
  store ptr %14, ptr %4, align 8, !tbaa !50
  call void @llvm.lifetime.start.p0(i64 4, ptr %5) #13
  store i32 0, ptr %5, align 4, !tbaa !10
  call void @llvm.lifetime.start.p0(i64 4, ptr %6) #13
  store i32 -1, ptr %6, align 4, !tbaa !10
  call void @llvm.lifetime.start.p0(i64 4, ptr %7) #13
  store i32 -1, ptr %7, align 4, !tbaa !10
  call void @llvm.lifetime.start.p0(i64 4, ptr %8) #13
  store i32 -1, ptr %8, align 4, !tbaa !10
  call void @llvm.lifetime.start.p0(i64 4, ptr %9) #13
  store i32 -1, ptr %9, align 4, !tbaa !10
  %15 = load ptr, ptr %4, align 8, !tbaa !50
  %16 = getelementptr inbounds i32, ptr %15, i64 0
  %17 = load i32, ptr %16, align 4, !tbaa !10
  %18 = call i32 @Abc_LitIsCompl(i32 noundef %17)
  %19 = load ptr, ptr %4, align 8, !tbaa !50
  %20 = getelementptr inbounds i32, ptr %19, i64 1
  %21 = load i32, ptr %20, align 4, !tbaa !10
  %22 = call i32 @Abc_LitIsCompl(i32 noundef %21)
  %23 = icmp ne i32 %18, %22
  br i1 %23, label %24, label %82

24:                                               ; preds = %1
  %25 = load ptr, ptr %4, align 8, !tbaa !50
  %26 = getelementptr inbounds i32, ptr %25, i64 0
  %27 = load i32, ptr %26, align 4, !tbaa !10
  %28 = ashr i32 %27, 2
  %29 = load ptr, ptr %4, align 8, !tbaa !50
  %30 = getelementptr inbounds i32, ptr %29, i64 1
  %31 = load i32, ptr %30, align 4, !tbaa !10
  %32 = ashr i32 %31, 2
  %33 = icmp eq i32 %28, %32
  br i1 %33, label %34, label %82

34:                                               ; preds = %24
  %35 = load ptr, ptr %4, align 8, !tbaa !50
  %36 = getelementptr inbounds i32, ptr %35, i64 2
  %37 = load i32, ptr %36, align 4, !tbaa !10
  %38 = call i32 @Abc_LitIsCompl(i32 noundef %37)
  %39 = load ptr, ptr %4, align 8, !tbaa !50
  %40 = getelementptr inbounds i32, ptr %39, i64 3
  %41 = load i32, ptr %40, align 4, !tbaa !10
  %42 = call i32 @Abc_LitIsCompl(i32 noundef %41)
  %43 = icmp eq i32 %38, %42
  br i1 %43, label %44, label %45

44:                                               ; preds = %34
  store i32 -1, ptr %2, align 4
  store i32 1, ptr %10, align 4
  br label %259

45:                                               ; preds = %34
  %46 = load ptr, ptr %4, align 8, !tbaa !50
  %47 = getelementptr inbounds i32, ptr %46, i64 0
  %48 = load i32, ptr %47, align 4, !tbaa !10
  %49 = call i32 @Abc_Lit2Var(i32 noundef %48)
  store i32 %49, ptr %6, align 4, !tbaa !10
  %50 = load ptr, ptr %4, align 8, !tbaa !50
  %51 = getelementptr inbounds i32, ptr %50, i64 1
  %52 = load i32, ptr %51, align 4, !tbaa !10
  %53 = call i32 @Abc_Lit2Var(i32 noundef %52)
  store i32 %53, ptr %7, align 4, !tbaa !10
  %54 = load ptr, ptr %4, align 8, !tbaa !50
  %55 = getelementptr inbounds i32, ptr %54, i64 0
  %56 = load i32, ptr %55, align 4, !tbaa !10
  %57 = call i32 @Abc_LitIsCompl(i32 noundef %56)
  %58 = load ptr, ptr %4, align 8, !tbaa !50
  %59 = getelementptr inbounds i32, ptr %58, i64 2
  %60 = load i32, ptr %59, align 4, !tbaa !10
  %61 = call i32 @Abc_LitIsCompl(i32 noundef %60)
  %62 = icmp eq i32 %57, %61
  br i1 %62, label %63, label %72

63:                                               ; preds = %45
  %64 = load ptr, ptr %4, align 8, !tbaa !50
  %65 = getelementptr inbounds i32, ptr %64, i64 2
  %66 = load i32, ptr %65, align 4, !tbaa !10
  %67 = call i32 @Abc_Lit2Var(i32 noundef %66)
  store i32 %67, ptr %8, align 4, !tbaa !10
  %68 = load ptr, ptr %4, align 8, !tbaa !50
  %69 = getelementptr inbounds i32, ptr %68, i64 3
  %70 = load i32, ptr %69, align 4, !tbaa !10
  %71 = call i32 @Abc_Lit2Var(i32 noundef %70)
  store i32 %71, ptr %9, align 4, !tbaa !10
  br label %81

72:                                               ; preds = %45
  %73 = load ptr, ptr %4, align 8, !tbaa !50
  %74 = getelementptr inbounds i32, ptr %73, i64 3
  %75 = load i32, ptr %74, align 4, !tbaa !10
  %76 = call i32 @Abc_Lit2Var(i32 noundef %75)
  store i32 %76, ptr %8, align 4, !tbaa !10
  %77 = load ptr, ptr %4, align 8, !tbaa !50
  %78 = getelementptr inbounds i32, ptr %77, i64 2
  %79 = load i32, ptr %78, align 4, !tbaa !10
  %80 = call i32 @Abc_Lit2Var(i32 noundef %79)
  store i32 %80, ptr %9, align 4, !tbaa !10
  br label %81

81:                                               ; preds = %72, %63
  br label %221

82:                                               ; preds = %24, %1
  %83 = load ptr, ptr %4, align 8, !tbaa !50
  %84 = getelementptr inbounds i32, ptr %83, i64 1
  %85 = load i32, ptr %84, align 4, !tbaa !10
  %86 = call i32 @Abc_LitIsCompl(i32 noundef %85)
  %87 = load ptr, ptr %4, align 8, !tbaa !50
  %88 = getelementptr inbounds i32, ptr %87, i64 2
  %89 = load i32, ptr %88, align 4, !tbaa !10
  %90 = call i32 @Abc_LitIsCompl(i32 noundef %89)
  %91 = icmp ne i32 %86, %90
  br i1 %91, label %92, label %150

92:                                               ; preds = %82
  %93 = load ptr, ptr %4, align 8, !tbaa !50
  %94 = getelementptr inbounds i32, ptr %93, i64 1
  %95 = load i32, ptr %94, align 4, !tbaa !10
  %96 = ashr i32 %95, 2
  %97 = load ptr, ptr %4, align 8, !tbaa !50
  %98 = getelementptr inbounds i32, ptr %97, i64 2
  %99 = load i32, ptr %98, align 4, !tbaa !10
  %100 = ashr i32 %99, 2
  %101 = icmp eq i32 %96, %100
  br i1 %101, label %102, label %150

102:                                              ; preds = %92
  %103 = load ptr, ptr %4, align 8, !tbaa !50
  %104 = getelementptr inbounds i32, ptr %103, i64 0
  %105 = load i32, ptr %104, align 4, !tbaa !10
  %106 = call i32 @Abc_LitIsCompl(i32 noundef %105)
  %107 = load ptr, ptr %4, align 8, !tbaa !50
  %108 = getelementptr inbounds i32, ptr %107, i64 3
  %109 = load i32, ptr %108, align 4, !tbaa !10
  %110 = call i32 @Abc_LitIsCompl(i32 noundef %109)
  %111 = icmp eq i32 %106, %110
  br i1 %111, label %112, label %113

112:                                              ; preds = %102
  store i32 -1, ptr %2, align 4
  store i32 1, ptr %10, align 4
  br label %259

113:                                              ; preds = %102
  %114 = load ptr, ptr %4, align 8, !tbaa !50
  %115 = getelementptr inbounds i32, ptr %114, i64 1
  %116 = load i32, ptr %115, align 4, !tbaa !10
  %117 = call i32 @Abc_Lit2Var(i32 noundef %116)
  store i32 %117, ptr %6, align 4, !tbaa !10
  %118 = load ptr, ptr %4, align 8, !tbaa !50
  %119 = getelementptr inbounds i32, ptr %118, i64 2
  %120 = load i32, ptr %119, align 4, !tbaa !10
  %121 = call i32 @Abc_Lit2Var(i32 noundef %120)
  store i32 %121, ptr %7, align 4, !tbaa !10
  %122 = load ptr, ptr %4, align 8, !tbaa !50
  %123 = getelementptr inbounds i32, ptr %122, i64 1
  %124 = load i32, ptr %123, align 4, !tbaa !10
  %125 = call i32 @Abc_LitIsCompl(i32 noundef %124)
  %126 = load ptr, ptr %4, align 8, !tbaa !50
  %127 = getelementptr inbounds i32, ptr %126, i64 0
  %128 = load i32, ptr %127, align 4, !tbaa !10
  %129 = call i32 @Abc_LitIsCompl(i32 noundef %128)
  %130 = icmp eq i32 %125, %129
  br i1 %130, label %131, label %140

131:                                              ; preds = %113
  %132 = load ptr, ptr %4, align 8, !tbaa !50
  %133 = getelementptr inbounds i32, ptr %132, i64 0
  %134 = load i32, ptr %133, align 4, !tbaa !10
  %135 = call i32 @Abc_Lit2Var(i32 noundef %134)
  store i32 %135, ptr %8, align 4, !tbaa !10
  %136 = load ptr, ptr %4, align 8, !tbaa !50
  %137 = getelementptr inbounds i32, ptr %136, i64 3
  %138 = load i32, ptr %137, align 4, !tbaa !10
  %139 = call i32 @Abc_Lit2Var(i32 noundef %138)
  store i32 %139, ptr %9, align 4, !tbaa !10
  br label %149

140:                                              ; preds = %113
  %141 = load ptr, ptr %4, align 8, !tbaa !50
  %142 = getelementptr inbounds i32, ptr %141, i64 3
  %143 = load i32, ptr %142, align 4, !tbaa !10
  %144 = call i32 @Abc_Lit2Var(i32 noundef %143)
  store i32 %144, ptr %8, align 4, !tbaa !10
  %145 = load ptr, ptr %4, align 8, !tbaa !50
  %146 = getelementptr inbounds i32, ptr %145, i64 0
  %147 = load i32, ptr %146, align 4, !tbaa !10
  %148 = call i32 @Abc_Lit2Var(i32 noundef %147)
  store i32 %148, ptr %9, align 4, !tbaa !10
  br label %149

149:                                              ; preds = %140, %131
  br label %220

150:                                              ; preds = %92, %82
  %151 = load ptr, ptr %4, align 8, !tbaa !50
  %152 = getelementptr inbounds i32, ptr %151, i64 2
  %153 = load i32, ptr %152, align 4, !tbaa !10
  %154 = call i32 @Abc_LitIsCompl(i32 noundef %153)
  %155 = load ptr, ptr %4, align 8, !tbaa !50
  %156 = getelementptr inbounds i32, ptr %155, i64 3
  %157 = load i32, ptr %156, align 4, !tbaa !10
  %158 = call i32 @Abc_LitIsCompl(i32 noundef %157)
  %159 = icmp ne i32 %154, %158
  br i1 %159, label %160, label %218

160:                                              ; preds = %150
  %161 = load ptr, ptr %4, align 8, !tbaa !50
  %162 = getelementptr inbounds i32, ptr %161, i64 2
  %163 = load i32, ptr %162, align 4, !tbaa !10
  %164 = ashr i32 %163, 2
  %165 = load ptr, ptr %4, align 8, !tbaa !50
  %166 = getelementptr inbounds i32, ptr %165, i64 3
  %167 = load i32, ptr %166, align 4, !tbaa !10
  %168 = ashr i32 %167, 2
  %169 = icmp eq i32 %164, %168
  br i1 %169, label %170, label %218

170:                                              ; preds = %160
  %171 = load ptr, ptr %4, align 8, !tbaa !50
  %172 = getelementptr inbounds i32, ptr %171, i64 0
  %173 = load i32, ptr %172, align 4, !tbaa !10
  %174 = call i32 @Abc_LitIsCompl(i32 noundef %173)
  %175 = load ptr, ptr %4, align 8, !tbaa !50
  %176 = getelementptr inbounds i32, ptr %175, i64 1
  %177 = load i32, ptr %176, align 4, !tbaa !10
  %178 = call i32 @Abc_LitIsCompl(i32 noundef %177)
  %179 = icmp eq i32 %174, %178
  br i1 %179, label %180, label %181

180:                                              ; preds = %170
  store i32 -1, ptr %2, align 4
  store i32 1, ptr %10, align 4
  br label %259

181:                                              ; preds = %170
  %182 = load ptr, ptr %4, align 8, !tbaa !50
  %183 = getelementptr inbounds i32, ptr %182, i64 2
  %184 = load i32, ptr %183, align 4, !tbaa !10
  %185 = call i32 @Abc_Lit2Var(i32 noundef %184)
  store i32 %185, ptr %6, align 4, !tbaa !10
  %186 = load ptr, ptr %4, align 8, !tbaa !50
  %187 = getelementptr inbounds i32, ptr %186, i64 3
  %188 = load i32, ptr %187, align 4, !tbaa !10
  %189 = call i32 @Abc_Lit2Var(i32 noundef %188)
  store i32 %189, ptr %7, align 4, !tbaa !10
  %190 = load ptr, ptr %4, align 8, !tbaa !50
  %191 = getelementptr inbounds i32, ptr %190, i64 2
  %192 = load i32, ptr %191, align 4, !tbaa !10
  %193 = call i32 @Abc_LitIsCompl(i32 noundef %192)
  %194 = load ptr, ptr %4, align 8, !tbaa !50
  %195 = getelementptr inbounds i32, ptr %194, i64 0
  %196 = load i32, ptr %195, align 4, !tbaa !10
  %197 = call i32 @Abc_LitIsCompl(i32 noundef %196)
  %198 = icmp eq i32 %193, %197
  br i1 %198, label %199, label %208

199:                                              ; preds = %181
  %200 = load ptr, ptr %4, align 8, !tbaa !50
  %201 = getelementptr inbounds i32, ptr %200, i64 0
  %202 = load i32, ptr %201, align 4, !tbaa !10
  %203 = call i32 @Abc_Lit2Var(i32 noundef %202)
  store i32 %203, ptr %8, align 4, !tbaa !10
  %204 = load ptr, ptr %4, align 8, !tbaa !50
  %205 = getelementptr inbounds i32, ptr %204, i64 1
  %206 = load i32, ptr %205, align 4, !tbaa !10
  %207 = call i32 @Abc_Lit2Var(i32 noundef %206)
  store i32 %207, ptr %9, align 4, !tbaa !10
  br label %217

208:                                              ; preds = %181
  %209 = load ptr, ptr %4, align 8, !tbaa !50
  %210 = getelementptr inbounds i32, ptr %209, i64 1
  %211 = load i32, ptr %210, align 4, !tbaa !10
  %212 = call i32 @Abc_Lit2Var(i32 noundef %211)
  store i32 %212, ptr %8, align 4, !tbaa !10
  %213 = load ptr, ptr %4, align 8, !tbaa !50
  %214 = getelementptr inbounds i32, ptr %213, i64 0
  %215 = load i32, ptr %214, align 4, !tbaa !10
  %216 = call i32 @Abc_Lit2Var(i32 noundef %215)
  store i32 %216, ptr %9, align 4, !tbaa !10
  br label %217

217:                                              ; preds = %208, %199
  br label %219

218:                                              ; preds = %160, %150
  store i32 -1, ptr %2, align 4
  store i32 1, ptr %10, align 4
  br label %259

219:                                              ; preds = %217
  br label %220

220:                                              ; preds = %219, %149
  br label %221

221:                                              ; preds = %220, %81
  %222 = load i32, ptr %6, align 4, !tbaa !10
  %223 = call i32 @Abc_LitIsCompl(i32 noundef %222)
  %224 = icmp ne i32 %223, 0
  br i1 %224, label %225, label %232

225:                                              ; preds = %221
  call void @llvm.lifetime.start.p0(i64 4, ptr %11) #13
  %226 = load i32, ptr %6, align 4, !tbaa !10
  store i32 %226, ptr %11, align 4, !tbaa !10
  %227 = load i32, ptr %7, align 4, !tbaa !10
  store i32 %227, ptr %6, align 4, !tbaa !10
  %228 = load i32, ptr %11, align 4, !tbaa !10
  store i32 %228, ptr %7, align 4, !tbaa !10
  call void @llvm.lifetime.end.p0(i64 4, ptr %11) #13
  call void @llvm.lifetime.start.p0(i64 4, ptr %12) #13
  %229 = load i32, ptr %8, align 4, !tbaa !10
  store i32 %229, ptr %12, align 4, !tbaa !10
  %230 = load i32, ptr %9, align 4, !tbaa !10
  store i32 %230, ptr %8, align 4, !tbaa !10
  %231 = load i32, ptr %12, align 4, !tbaa !10
  store i32 %231, ptr %9, align 4, !tbaa !10
  call void @llvm.lifetime.end.p0(i64 4, ptr %12) #13
  br label %232

232:                                              ; preds = %225, %221
  %233 = load i32, ptr %8, align 4, !tbaa !10
  %234 = call i32 @Abc_LitIsCompl(i32 noundef %233)
  %235 = icmp ne i32 %234, 0
  br i1 %235, label %236, label %241

236:                                              ; preds = %232
  %237 = load i32, ptr %8, align 4, !tbaa !10
  %238 = call i32 @Abc_LitNot(i32 noundef %237)
  store i32 %238, ptr %8, align 4, !tbaa !10
  %239 = load i32, ptr %9, align 4, !tbaa !10
  %240 = call i32 @Abc_LitNot(i32 noundef %239)
  store i32 %240, ptr %9, align 4, !tbaa !10
  store i32 1, ptr %5, align 4, !tbaa !10
  br label %241

241:                                              ; preds = %236, %232
  %242 = load i32, ptr %6, align 4, !tbaa !10
  %243 = call i32 @Abc_Var2Lit(i32 noundef %242, i32 noundef 0)
  %244 = load ptr, ptr %4, align 8, !tbaa !50
  %245 = getelementptr inbounds i32, ptr %244, i64 0
  store i32 %243, ptr %245, align 4, !tbaa !10
  %246 = load i32, ptr %7, align 4, !tbaa !10
  %247 = call i32 @Abc_Var2Lit(i32 noundef %246, i32 noundef 1)
  %248 = load ptr, ptr %4, align 8, !tbaa !50
  %249 = getelementptr inbounds i32, ptr %248, i64 1
  store i32 %247, ptr %249, align 4, !tbaa !10
  %250 = load i32, ptr %8, align 4, !tbaa !10
  %251 = call i32 @Abc_Var2Lit(i32 noundef %250, i32 noundef 0)
  %252 = load ptr, ptr %4, align 8, !tbaa !50
  %253 = getelementptr inbounds i32, ptr %252, i64 2
  store i32 %251, ptr %253, align 4, !tbaa !10
  %254 = load i32, ptr %9, align 4, !tbaa !10
  %255 = call i32 @Abc_Var2Lit(i32 noundef %254, i32 noundef 1)
  %256 = load ptr, ptr %4, align 8, !tbaa !50
  %257 = getelementptr inbounds i32, ptr %256, i64 3
  store i32 %255, ptr %257, align 4, !tbaa !10
  %258 = load i32, ptr %5, align 4, !tbaa !10
  store i32 %258, ptr %2, align 4
  store i32 1, ptr %10, align 4
  br label %259

259:                                              ; preds = %241, %218, %180, %112, %44
  call void @llvm.lifetime.end.p0(i64 4, ptr %9) #13
  call void @llvm.lifetime.end.p0(i64 4, ptr %8) #13
  call void @llvm.lifetime.end.p0(i64 4, ptr %7) #13
  call void @llvm.lifetime.end.p0(i64 4, ptr %6) #13
  call void @llvm.lifetime.end.p0(i64 4, ptr %5) #13
  call void @llvm.lifetime.end.p0(i64 8, ptr %4) #13
  %260 = load i32, ptr %2, align 4
  ret i32 %260
}