; Function Attrs: mustprogress nofree norecurse nosync nounwind willreturn memory(argmem: readwrite) uwtable
define internal fastcc range(i32 -1, 2) i32 @Fx_ManDivNormalize(ptr captures(none) %.8.val) unnamed_addr #12 {
  %1 = load i32, ptr %.8.val, align 4, !tbaa !39
  %2 = and i32 %1, 1
  %3 = getelementptr inbounds nuw i8, ptr %.8.val, i64 4
  %4 = load i32, ptr %3, align 4, !tbaa !39
  %5 = and i32 %4, 1
  %.not = icmp eq i32 %2, %5
  %.unshifted = xor i32 %4, %1
  %6 = icmp ugt i32 %.unshifted, 3
  %or.cond.not = or i1 %6, %.not
  %7 = getelementptr inbounds nuw i8, ptr %.8.val, i64 8
  %8 = load i32, ptr %7, align 4, !tbaa !39
  %9 = and i32 %8, 1
  br i1 %or.cond.not, label %17, label %10

10:                                               ; preds = %0
  %11 = getelementptr inbounds nuw i8, ptr %.8.val, i64 12
  %12 = load i32, ptr %11, align 4, !tbaa !39
  %13 = and i32 %12, 1
  %14 = icmp eq i32 %9, %13
  br i1 %14, label %42, label %15

15:                                               ; preds = %10
  %16 = icmp eq i32 %2, %9
  %. = select i1 %16, i32 %8, i32 %12
  %.6 = select i1 %16, i32 %12, i32 %8
  br label %29

17:                                               ; preds = %0
  %.not71 = icmp ne i32 %5, %9
  %.unshifted72 = xor i32 %8, %4
  %18 = icmp ult i32 %.unshifted72, 4
  %or.cond1 = and i1 %.not71, %18
  %19 = getelementptr inbounds nuw i8, ptr %.8.val, i64 12
  %20 = load i32, ptr %19, align 4, !tbaa !39
  %21 = and i32 %20, 1
  br i1 %or.cond1, label %22, label %25

22:                                               ; preds = %17
  %23 = icmp eq i32 %2, %21
  br i1 %23, label %42, label %24

24:                                               ; preds = %22
  %.7 = select i1 %.not, i32 %1, i32 %20
  %.8 = select i1 %.not, i32 %20, i32 %1
  br label %29

25:                                               ; preds = %17
  %.not73 = icmp eq i32 %9, %21
  %.unshifted74 = xor i32 %20, %8
  %26 = icmp ugt i32 %.unshifted74, 3
  %or.cond2.not5 = or i1 %.not73, %26
  %brmerge = or i1 %.not, %or.cond2.not5
  br i1 %brmerge, label %42, label %27

27:                                               ; preds = %25
  %28 = icmp eq i32 %9, %2
  %.9 = select i1 %28, i32 %1, i32 %4
  %.10 = select i1 %28, i32 %4, i32 %1
  br label %29

29:                                               ; preds = %27, %24, %15
  %.069.in = phi i32 [ %1, %15 ], [ %4, %24 ], [ %8, %27 ]
  %.067.in = phi i32 [ %4, %15 ], [ %8, %24 ], [ %20, %27 ]
  %.064.in = phi i32 [ %., %15 ], [ %.7, %24 ], [ %.9, %27 ]
  %.063.in = phi i32 [ %.6, %15 ], [ %.8, %24 ], [ %.10, %27 ]
  %.063 = ashr i32 %.063.in, 1
  %.064 = ashr i32 %.064.in, 1
  %.067 = ashr i32 %.067.in, 1
  %.069 = ashr i32 %.069.in, 1
  %30 = and i32 %.069.in, 2
  %.not75 = icmp eq i32 %30, 0
  br i1 %.not75, label %32, label %31

31:                                               ; preds = %29
  br label %32

32:                                               ; preds = %31, %29
  %.170 = phi i32 [ %.067, %31 ], [ %.069, %29 ]
  %.168 = phi i32 [ %.069, %31 ], [ %.067, %29 ]
  %.165 = phi i32 [ %.063, %31 ], [ %.064, %29 ]
  %.1 = phi i32 [ %.064, %31 ], [ %.063, %29 ]
  %33 = and i32 %.165, 1
  %.2 = xor i32 %.1, %33
  %34 = shl nsw i32 %.170, 1
  store i32 %34, ptr %.8.val, align 4, !tbaa !39
  %35 = shl nsw i32 %.168, 1
  %36 = or disjoint i32 %35, 1
  store i32 %36, ptr %3, align 4, !tbaa !39
  %.266 = shl nsw i32 %.165, 1
  %37 = and i32 %.266, -4
  %38 = getelementptr inbounds nuw i8, ptr %.8.val, i64 8
  store i32 %37, ptr %38, align 4, !tbaa !39
  %39 = shl nsw i32 %.2, 1
  %40 = or disjoint i32 %39, 1
  %41 = getelementptr inbounds nuw i8, ptr %.8.val, i64 12
  store i32 %40, ptr %41, align 4, !tbaa !39
  br label %42

42:                                               ; preds = %25, %22, %10, %32
  %.0 = phi i32 [ %33, %32 ], [ -1, %10 ], [ -1, %22 ], [ -1, %25 ]
  ret i32 %.0
}